	.file	"main.c"
	.text
	.globl	set_42
	.type	set_42, @function
set_42:
.LASANPC0:
.LFB0:
	.cfi_startproc
	endbr64
	pushq	%rbp
	.cfi_def_cfa_offset 16
	.cfi_offset 6, -16
	movq	%rsp, %rbp
	.cfi_def_cfa_register 6
	subq	$16, %rsp
	movq	%rdi, -8(%rbp)
	movq	-8(%rbp), %rax
	movq	%rax, %rdx
	shrq	$3, %rdx
	addq	$2147450880, %rdx
	movzbl	(%rdx), %edx
	testb	%dl, %dl
	setne	%sil
	movq	%rax, %rcx
	andl	$7, %ecx
	addl	$3, %ecx
	cmpb	%dl, %cl
	setge	%dl
	andl	%esi, %edx
	testb	%dl, %dl
	je	.L2
	movq	%rax, %rdi
	call	__asan_report_store4@PLT
.L2:
	movq	-8(%rbp), %rax
	movl	$42, (%rax)
	nop
	leave
	.cfi_def_cfa 7, 8
	ret
	.cfi_endproc
.LFE0:
	.size	set_42, .-set_42
	.globl	set_number
	.type	set_number, @function
set_number:
.LASANPC1:
.LFB1:
	.cfi_startproc
	endbr64
	pushq	%rbp
	.cfi_def_cfa_offset 16
	.cfi_offset 6, -16
	movq	%rsp, %rbp
	.cfi_def_cfa_register 6
	subq	$16, %rsp
	movq	-8(%rbp), %rax
	movq	%rax, %rdi
	call	set_42
	movq	-8(%rbp), %rax
	movq	%rax, %rdx
	shrq	$3, %rdx
	addq	$2147450880, %rdx
	movzbl	(%rdx), %edx
	testb	%dl, %dl
	setne	%sil
	movq	%rax, %rcx
	andl	$7, %ecx
	addl	$3, %ecx
	cmpb	%dl, %cl
	setge	%dl
	andl	%esi, %edx
	testb	%dl, %dl
	je	.L4
	movq	%rax, %rdi
	call	__asan_report_load4@PLT
.L4:
	movq	-8(%rbp), %rax
	movl	(%rax), %eax
	leave
	.cfi_def_cfa 7, 8
	ret
	.cfi_endproc
.LFE1:
	.size	set_number, .-set_number
	.section	.rodata
	.align 32
.LC0:
	.string	"value=%d\n"
	.zero	54
	.text
	.globl	main
	.type	main, @function
main:
.LASANPC2:
.LFB2:
	.cfi_startproc
	endbr64
	pushq	%rbp
	.cfi_def_cfa_offset 16
	.cfi_offset 6, -16
	movq	%rsp, %rbp
	.cfi_def_cfa_register 6
	subq	$16, %rsp
	movl	%edi, -4(%rbp)
	movq	%rsi, -16(%rbp)
	call	set_number
	movl	%eax, %esi
	leaq	.LC0(%rip), %rax
	movq	%rax, %rdi
	movl	$0, %eax
	call	printf@PLT
	movl	$0, %eax
	leave
	.cfi_def_cfa 7, 8
	ret
	.cfi_endproc
.LFE2:
	.size	main, .-main
	.section	.rodata
.LC1:
	.string	"*.LC0"
.LC2:
	.string	"main.c"
	.section	.data.rel.local,"aw"
	.align 32
	.type	.LASAN0, @object
	.size	.LASAN0, 64
.LASAN0:
	.quad	.LC0
	.quad	10
	.quad	64
	.quad	.LC1
	.quad	.LC2
	.quad	0
	.quad	0
	.quad	0
	.text
	.type	_sub_D_00099_0, @function
_sub_D_00099_0:
.LFB3:
	.cfi_startproc
	endbr64
	pushq	%rbp
	.cfi_def_cfa_offset 16
	.cfi_offset 6, -16
	movq	%rsp, %rbp
	.cfi_def_cfa_register 6
	movl	$1, %esi
	leaq	.LASAN0(%rip), %rax
	movq	%rax, %rdi
	call	__asan_unregister_globals@PLT
	popq	%rbp
	.cfi_def_cfa 7, 8
	ret
	.cfi_endproc
.LFE3:
	.size	_sub_D_00099_0, .-_sub_D_00099_0
	.section	.fini_array.00099,"aw"
	.align 8
	.quad	_sub_D_00099_0
	.text
	.type	_sub_I_00099_1, @function
_sub_I_00099_1:
.LFB4:
	.cfi_startproc
	endbr64
	pushq	%rbp
	.cfi_def_cfa_offset 16
	.cfi_offset 6, -16
	movq	%rsp, %rbp
	.cfi_def_cfa_register 6
	call	__asan_init@PLT
	call	__asan_version_mismatch_check_v8@PLT
	movl	$1, %esi
	leaq	.LASAN0(%rip), %rax
	movq	%rax, %rdi
	call	__asan_register_globals@PLT
	popq	%rbp
	.cfi_def_cfa 7, 8
	ret
	.cfi_endproc
.LFE4:
	.size	_sub_I_00099_1, .-_sub_I_00099_1
	.section	.init_array.00099,"aw"
	.align 8
	.quad	_sub_I_00099_1
	.ident	"GCC: (Ubuntu 13.3.0-6ubuntu2~24.04) 13.3.0"
	.section	.note.GNU-stack,"",@progbits
	.section	.note.gnu.property,"a"
	.align 8
	.long	1f - 0f
	.long	4f - 1f
	.long	5
0:
	.string	"GNU"
1:
	.align 8
	.long	0xc0000002
	.long	3f - 2f
2:
	.long	0x3
3:
	.align 8
4:
